target datalayout = "e-m:e-p270:32:32-p271:32:32-p272:64:64-i64:64-i128:128-f80:128-n8:16:32:64-S128"
target triple = "x86_64-pc-linux-gnu"

%"struct.faiss::IndexPreTransform" = type <{ %"struct.faiss::Index.base", [4 x i8], %"class.std::vector", ptr, i8, [7 x i8] }>
%"struct.faiss::Index.base" = type <{ ptr, i32, [4 x i8], i64, i8, i8, [2 x i8], i32, float }>
%"class.std::vector" = type { %"struct.std::_Vector_base" }
%"struct.std::_Vector_base" = type { %"struct.std::_Vector_base<faiss::VectorTransform *, std::allocator<faiss::VectorTransform *>>::_Vector_impl" }
%"struct.std::_Vector_base<faiss::VectorTransform *, std::allocator<faiss::VectorTransform *>>::_Vector_impl" = type { %"struct.std::_Vector_base<faiss::VectorTransform *, std::allocator<faiss::VectorTransform *>>::_Vector_impl_data" }
%"struct.std::_Vector_base<faiss::VectorTransform *, std::allocator<faiss::VectorTransform *>>::_Vector_impl_data" = type { ptr, ptr, ptr }
%"struct.faiss::Index" = type <{ ptr, i32, [4 x i8], i64, i8, i8, [2 x i8], i32, float, [4 x i8] }>

; Function Attrs: mustprogress uwtable
define noundef i64 @_ZN5faiss17IndexPreTransform10remove_idsERKNS_10IDSelectorE(ptr noundef nonnull align 8 dereferenceable(73) %0, ptr noundef nonnull align 1 %1) unnamed_addr #1 align 2 {
  %3 = alloca ptr, align 8
  %4 = alloca ptr, align 8
  %5 = alloca i64, align 8
  store ptr %0, ptr %3, align 8, !tbaa !4
  store ptr %1, ptr %4, align 8, !tbaa !60
  %6 = load ptr, ptr %3, align 8
  call void @llvm.lifetime.start.p0(i64 8, ptr %5) #18
  %7 = getelementptr inbounds nuw %"struct.faiss::IndexPreTransform", ptr %6, i32 0, i32 3
  %8 = load ptr, ptr %7, align 8, !tbaa !15
  %9 = load ptr, ptr %4, align 8, !tbaa !60
  %10 = load ptr, ptr %8, align 8, !tbaa !47
  %11 = getelementptr inbounds ptr, ptr %10, i64 9
  %12 = load ptr, ptr %11, align 8
  %13 = call noundef i64 %12(ptr noundef nonnull align 8 dereferenceable(36) %8, ptr noundef nonnull align 1 %9)
  store i64 %13, ptr %5, align 8, !tbaa !9
  %14 = getelementptr inbounds nuw %"struct.faiss::IndexPreTransform", ptr %6, i32 0, i32 3
  %15 = load ptr, ptr %14, align 8, !tbaa !15
  %16 = getelementptr inbounds nuw %"struct.faiss::Index", ptr %15, i32 0, i32 3
  %17 = load i64, ptr %16, align 8, !tbaa !52
  %18 = getelementptr inbounds nuw %"struct.faiss::Index", ptr %6, i32 0, i32 3
  store i64 %17, ptr %18, align 8, !tbaa !52
  %19 = load i64, ptr %5, align 8, !tbaa !9
  call void @llvm.lifetime.end.p0(i64 8, ptr %5) #18
  ret i64 %19
}