; Function Attrs: mustprogress uwtable
define noundef i64 @_ZN5faiss17IndexPreTransform10remove_idsERKNS_10IDSelectorE(ptr noundef nonnull align 8 captures(none) dereferenceable(73) initializes((16, 24)) %0, ptr noundef nonnull align 1 %1) unnamed_addr #1 align 2 {
  %3 = getelementptr inbounds nuw i8, ptr %0, i64 64
  %4 = load ptr, ptr %3, align 8, !tbaa !4
  %5 = load ptr, ptr %4, align 8, !tbaa !42
  %6 = getelementptr inbounds nuw i8, ptr %5, i64 72
  %7 = load ptr, ptr %6, align 8
  %8 = tail call noundef i64 %7(ptr noundef nonnull align 8 dereferenceable(36) %4, ptr noundef nonnull align 1 %1)
  %9 = load ptr, ptr %3, align 8, !tbaa !4
  %10 = getelementptr inbounds nuw i8, ptr %9, i64 16
  %11 = load i64, ptr %10, align 8, !tbaa !52
  %12 = getelementptr inbounds nuw i8, ptr %0, i64 16
  store i64 %11, ptr %12, align 8, !tbaa !52
  ret i64 %8
}